target datalayout = "e-m:e-p270:32:32-p271:32:32-p272:64:64-i64:64-i128:128-f80:128-n8:16:32:64-S128"
target triple = "x86_64-unknown-linux-gnu"

%class.sls_engine = type { ptr, %"class.sls_engine::stats", %class.mpz_manager, %class.powers, %class.mpz, %class.mpz, %class.mpz, i8, %class.bv_util, %class.sls_tracker, %class.sls_evaluator, %class.ptr_vector.25, i32, i32, i32, i32, i32, i32, i32, i32, i32, i32, i32, i32, i32, i32 }
%"class.sls_engine::stats" = type { i32, [4 x i8], %class.stopwatch, i32, i32, i32, i32, i32, i32, i32, [4 x i8] }
%class.stopwatch = type <{ %"class.std::chrono::time_point", %"class.std::chrono::duration", i8, [7 x i8] }>
%"class.std::chrono::time_point" = type { %"class.std::chrono::duration" }
%"class.std::chrono::duration" = type { i64 }
%class.mpz_manager = type { %class.small_object_allocator, %"class.std::recursive_mutex", %class.mpn_manager, i32, %class.mpz, %class.mpz }
%class.small_object_allocator = type { [32 x ptr], [32 x ptr], i64 }
%"class.std::recursive_mutex" = type { %"class.std::__recursive_mutex_base" }
%"class.std::__recursive_mutex_base" = type { %union.pthread_mutex_t }
%union.pthread_mutex_t = type { %struct.__pthread_mutex_s }
%struct.__pthread_mutex_s = type { i32, i32, i32, i32, i32, i16, i16, %struct.__pthread_internal_list }
%struct.__pthread_internal_list = type { ptr, ptr }
%class.mpn_manager = type { i8 }
%class.powers = type { %class.u_map, ptr }
%class.u_map = type { %class.map }
%class.map = type { %class.table2map }
%class.table2map = type { %class.core_hashtable }
%class.core_hashtable = type <{ ptr, i32, i32, i32, [4 x i8] }>
%class.mpz = type { i32, i8, ptr }
%class.bv_util = type { %class.bv_recognizers, ptr, ptr }
%class.bv_recognizers = type { i32 }
%class.sls_tracker = type { ptr, ptr, ptr, ptr, %class.random_gen, i32, i32, %class.mpz, %class.mpz, %class.mpz, %class.obj_hashtable, %class.obj_map, %class.obj_map.4, %class.obj_map.9, %class.ptr_vector, %class.ptr_vector, %class.obj_map.14, i32, i32, i32, double, i32, double, double, i32, double, i32, [4 x i8], %class.obj_map.19, ptr, i32, [4 x i8], %class.obj_map.19, double, %class.obj_hashtable }
%class.random_gen = type { i32 }
%class.obj_map = type { %class.core_hashtable.2 }
%class.core_hashtable.2 = type <{ ptr, i32, i32, i32, [4 x i8] }>
%class.obj_map.4 = type { %class.core_hashtable.5 }
%class.core_hashtable.5 = type <{ ptr, i32, i32, i32, [4 x i8] }>
%class.obj_map.9 = type { %class.core_hashtable.10 }
%class.core_hashtable.10 = type <{ ptr, i32, i32, i32, [4 x i8] }>
%class.ptr_vector = type { %class.vector }
%class.vector = type { ptr }
%class.obj_map.14 = type { %class.core_hashtable.15 }
%class.core_hashtable.15 = type <{ ptr, i32, i32, i32, [4 x i8] }>
%class.obj_map.19 = type { %class.core_hashtable.20 }
%class.core_hashtable.20 = type <{ ptr, i32, i32, i32, [4 x i8] }>
%class.obj_hashtable = type { %class.core_hashtable.base.1, [4 x i8] }
%class.core_hashtable.base.1 = type <{ ptr, i32, i32, i32 }>
%class.sls_evaluator = type { ptr, ptr, i32, i32, ptr, ptr, %class.mpz, %class.mpz, %class.mpz, ptr, %class.ref_buffer, %class.vector.24, %class.vector.24 }
%class.ref_buffer = type { %class.ref_buffer_core }
%class.ref_buffer_core = type { %class.ref_manager_wrapper, %class.ptr_buffer }
%class.ref_manager_wrapper = type { ptr }
%class.ptr_buffer = type { %class.buffer }
%class.buffer = type { ptr, i32, i32, [16 x %"union.std::aligned_storage<8, 8>::type"] }
%"union.std::aligned_storage<8, 8>::type" = type { [8 x i8] }
%class.vector.24 = type { ptr }
%class.ptr_vector.25 = type { %class.vector.26 }
%class.vector.26 = type { ptr }

; Function Attrs: mustprogress nounwind uwtable
define hidden noundef i32 @_ZN10sls_engine13check_restartEj(ptr noundef nonnull align 8 dereferenceable(1512) %this, i32 noundef %curr_value) #5 align 2 {
entry:
  %retval = alloca i32, align 4
  %this.addr = alloca ptr, align 8
  %curr_value.addr = alloca i32, align 4
  store ptr %this, ptr %this.addr, align 8
  store i32 %curr_value, ptr %curr_value.addr, align 4
  %this1 = load ptr, ptr %this.addr, align 8
  %0 = load i32, ptr %curr_value.addr, align 4
  %m_restart_next = getelementptr inbounds %class.sls_engine, ptr %this1, i32 0, i32 21
  %1 = load i32, ptr %m_restart_next, align 4
  %cmp = icmp ugt i32 %0, %1
  br i1 %cmp, label %if.then, label %if.end9

if.then:                                          ; preds = %entry
  %m_stats = getelementptr inbounds %class.sls_engine, ptr %this1, i32 0, i32 1
  %m_restarts = getelementptr inbounds %"class.sls_engine::stats", ptr %m_stats, i32 0, i32 0
  %2 = load i32, ptr %m_restarts, align 8
  %and = and i32 %2, 1
  %tobool = icmp ne i32 %and, 0
  br i1 %tobool, label %if.then2, label %if.else

if.then2:                                         ; preds = %if.then
  %m_restart_base = getelementptr inbounds %class.sls_engine, ptr %this1, i32 0, i32 20
  %3 = load i32, ptr %m_restart_base, align 8
  %m_restart_next3 = getelementptr inbounds %class.sls_engine, ptr %this1, i32 0, i32 21
  %4 = load i32, ptr %m_restart_next3, align 4
  %add = add i32 %4, %3
  store i32 %add, ptr %m_restart_next3, align 4
  br label %if.end

if.else:                                          ; preds = %if.then
  %m_stats4 = getelementptr inbounds %class.sls_engine, ptr %this1, i32 0, i32 1
  %m_restarts5 = getelementptr inbounds %"class.sls_engine::stats", ptr %m_stats4, i32 0, i32 0
  %5 = load i32, ptr %m_restarts5, align 8
  %shr = lshr i32 %5, 1
  %shl = shl i32 2, %shr
  %m_restart_base6 = getelementptr inbounds %class.sls_engine, ptr %this1, i32 0, i32 20
  %6 = load i32, ptr %m_restart_base6, align 8
  %mul = mul i32 %shl, %6
  %m_restart_next7 = getelementptr inbounds %class.sls_engine, ptr %this1, i32 0, i32 21
  %7 = load i32, ptr %m_restart_next7, align 4
  %add8 = add i32 %7, %mul
  store i32 %add8, ptr %m_restart_next7, align 4
  br label %if.end

if.end:                                           ; preds = %if.else, %if.then2
  store i32 0, ptr %retval, align 4
  br label %return

if.end9:                                          ; preds = %entry
  store i32 1, ptr %retval, align 4
  br label %return

return:                                           ; preds = %if.end9, %if.end
  %8 = load i32, ptr %retval, align 4
  ret i32 %8
}