; Function Attrs: mustprogress nofree norecurse nosync nounwind willreturn memory(argmem: readwrite) uwtable
define hidden noundef i32 @_ZN10sls_engine13check_restartEj(ptr nocapture noundef nonnull align 8 dereferenceable(1512) %this, i32 noundef %curr_value) local_unnamed_addr #8 align 2 {
entry:
  %m_restart_next = getelementptr inbounds i8, ptr %this, i64 1492
  %0 = load i32, ptr %m_restart_next, align 4
  %cmp = icmp ult i32 %0, %curr_value
  br i1 %cmp, label %if.then, label %return

if.then:                                          ; preds = %entry
  %m_stats = getelementptr inbounds i8, ptr %this, i64 8
  %1 = load i32, ptr %m_stats, align 8
  %and = and i32 %1, 1
  %tobool.not = icmp eq i32 %and, 0
  br i1 %tobool.not, label %if.else, label %if.then2

if.then2:                                         ; preds = %if.then
  %m_restart_base = getelementptr inbounds i8, ptr %this, i64 1488
  %2 = load i32, ptr %m_restart_base, align 8
  br label %if.end

if.else:                                          ; preds = %if.then
  %shr = lshr exact i32 %1, 1
  %shl = shl i32 2, %shr
  %m_restart_base6 = getelementptr inbounds i8, ptr %this, i64 1488
  %3 = load i32, ptr %m_restart_base6, align 8
  %mul = mul i32 %3, %shl
  br label %if.end

if.end:                                           ; preds = %if.else, %if.then2
  %mul.pn = phi i32 [ %mul, %if.else ], [ %2, %if.then2 ]
  %storemerge = add i32 %mul.pn, %0
  store i32 %storemerge, ptr %m_restart_next, align 4
  br label %return

return:                                           ; preds = %entry, %if.end
  %retval.0 = phi i32 [ 0, %if.end ], [ 1, %entry ]
  ret i32 %retval.0
}